target datalayout = "e-m:e-p270:32:32-p271:32:32-p272:64:64-i64:64-i128:128-f80:128-n8:16:32:64-S128"
target triple = "x86_64-pc-linux-gnu"

@.str.53 = private unnamed_addr constant [31 x i8] c"../openssl/test/evp_kdf_test.c\00", align 1
@.str.59 = private unnamed_addr constant [25 x i8] c"passwordPASSWORDpassword\00", align 1
@.str.60 = private unnamed_addr constant [7 x i8] c"sha256\00", align 1
@.str.61 = private unnamed_addr constant [37 x i8] c"saltSALTsaltSALTsaltSALTsaltSALTsalt\00", align 1
@.str.62 = private unnamed_addr constant [7 x i8] c"params\00", align 1
@.str.67 = private unnamed_addr constant [2 x i8] c"0\00", align 1
@.str.68 = private unnamed_addr constant [4 x i8] c"out\00", align 1
@.str.69 = private unnamed_addr constant [9 x i8] c"expected\00", align 1
@.str.107 = private unnamed_addr constant [7 x i8] c"PBKDF2\00", align 1
@.str.120 = private unnamed_addr constant [47 x i8] c"EVP_KDF_derive(kctx, out, sizeof(out), params)\00", align 1
@__const.test_kdf_pbkdf2.expected = private unnamed_addr constant [25 x i8] c"4\8C\89\DB\CB\D3+/2\D8\14\B8\11n\84\CF+\174~\BC\18\00\18\1C", align 16
@.str.137 = private unnamed_addr constant [43 x i8] c"kctx = get_kdfbyname(OSSL_KDF_NAME_PBKDF2)\00", align 1

; Function Attrs: nounwind uwtable
define internal ptr @get_kdfbyname_libctx(ptr noundef %0, ptr noundef %1) #0 {
  %3 = alloca ptr, align 8
  %4 = alloca ptr, align 8
  %5 = alloca ptr, align 8
  %6 = alloca ptr, align 8
  store ptr %0, ptr %3, align 8, !tbaa !11
  store ptr %1, ptr %4, align 8, !tbaa !18
  call void @llvm.lifetime.start.p0(i64 8, ptr %5) #6
  %7 = load ptr, ptr %3, align 8, !tbaa !11
  %8 = load ptr, ptr %4, align 8, !tbaa !18
  %9 = call ptr @EVP_KDF_fetch(ptr noundef %7, ptr noundef %8, ptr noundef null)
  store ptr %9, ptr %5, align 8, !tbaa !26
  call void @llvm.lifetime.start.p0(i64 8, ptr %6) #6
  %10 = load ptr, ptr %5, align 8, !tbaa !26
  %11 = call ptr @EVP_KDF_CTX_new(ptr noundef %10)
  store ptr %11, ptr %6, align 8, !tbaa !8
  %12 = load ptr, ptr %5, align 8, !tbaa !26
  call void @EVP_KDF_free(ptr noundef %12)
  %13 = load ptr, ptr %6, align 8, !tbaa !8
  call void @llvm.lifetime.end.p0(i64 8, ptr %6) #6
  call void @llvm.lifetime.end.p0(i64 8, ptr %5) #6
  ret ptr %13
}

; Function Attrs: nounwind uwtable
define internal ptr @get_kdfbyname(ptr noundef %0) #0 {
  %2 = alloca ptr, align 8
  store ptr %0, ptr %2, align 8, !tbaa !18
  %3 = load ptr, ptr %2, align 8, !tbaa !18
  %4 = call ptr @get_kdfbyname_libctx(ptr noundef null, ptr noundef %3)
  ret ptr %4
}

; Function Attrs: nounwind uwtable
define internal i32 @test_kdf_pbkdf2() #0 {
  %1 = alloca i32, align 4
  %2 = alloca ptr, align 8
  %3 = alloca [25 x i8], align 16
  %4 = alloca i32, align 4
  %5 = alloca i32, align 4
  %6 = alloca ptr, align 8
  %7 = alloca [25 x i8], align 16
  call void @llvm.lifetime.start.p0(i64 4, ptr %1) #6
  store i32 0, ptr %1, align 4, !tbaa !4
  call void @llvm.lifetime.start.p0(i64 8, ptr %2) #6
  store ptr null, ptr %2, align 8, !tbaa !8
  call void @llvm.lifetime.start.p0(i64 25, ptr %3) #6
  call void @llvm.lifetime.start.p0(i64 4, ptr %4) #6
  store i32 4096, ptr %4, align 4, !tbaa !4
  call void @llvm.lifetime.start.p0(i64 4, ptr %5) #6
  store i32 0, ptr %5, align 4, !tbaa !4
  call void @llvm.lifetime.start.p0(i64 8, ptr %6) #6
  call void @llvm.lifetime.start.p0(i64 25, ptr %7) #6
  call void @llvm.memcpy.p0.p0.i64(ptr align 16 %7, ptr align 16 @__const.test_kdf_pbkdf2.expected, i64 25, i1 false)
  %8 = call ptr @construct_pbkdf2_params(ptr noundef @.str.59, ptr noundef @.str.60, ptr noundef @.str.61, ptr noundef %4, ptr noundef %5)
  store ptr %8, ptr %6, align 8, !tbaa !13
  %9 = load ptr, ptr %6, align 8, !tbaa !13
  %10 = call i32 @test_ptr(ptr noundef @.str.53, i32 noundef 637, ptr noundef @.str.62, ptr noundef %9)
  %11 = icmp ne i32 %10, 0
  br i1 %11, label %12, label %28

12:                                               ; preds = %0
  %13 = call ptr @get_kdfbyname(ptr noundef @.str.107)
  store ptr %13, ptr %2, align 8, !tbaa !8
  %14 = call i32 @test_ptr(ptr noundef @.str.53, i32 noundef 638, ptr noundef @.str.137, ptr noundef %13)
  %15 = icmp ne i32 %14, 0
  br i1 %15, label %16, label %28

16:                                               ; preds = %12
  %17 = load ptr, ptr %2, align 8, !tbaa !8
  %18 = getelementptr inbounds [25 x i8], ptr %3, i64 0, i64 0
  %19 = load ptr, ptr %6, align 8, !tbaa !13
  %20 = call i32 @EVP_KDF_derive(ptr noundef %17, ptr noundef %18, i64 noundef 25, ptr noundef %19)
  %21 = call i32 @test_int_gt(ptr noundef @.str.53, i32 noundef 639, ptr noundef @.str.120, ptr noundef @.str.67, i32 noundef %20, i32 noundef 0)
  %22 = icmp ne i32 %21, 0
  br i1 %22, label %23, label %28

23:                                               ; preds = %16
  %24 = getelementptr inbounds [25 x i8], ptr %3, i64 0, i64 0
  %25 = getelementptr inbounds [25 x i8], ptr %7, i64 0, i64 0
  %26 = call i32 @test_mem_eq(ptr noundef @.str.53, i32 noundef 640, ptr noundef @.str.68, ptr noundef @.str.69, ptr noundef %24, i64 noundef 25, ptr noundef %25, i64 noundef 25)
  %27 = icmp ne i32 %26, 0
  br i1 %27, label %29, label %28

28:                                               ; preds = %23, %16, %12, %0
  br label %30

29:                                               ; preds = %23
  store i32 1, ptr %1, align 4, !tbaa !4
  br label %30

30:                                               ; preds = %29, %28
  %31 = load ptr, ptr %2, align 8, !tbaa !8
  call void @EVP_KDF_CTX_free(ptr noundef %31)
  %32 = load ptr, ptr %6, align 8, !tbaa !13
  call void @CRYPTO_free(ptr noundef %32, ptr noundef @.str.53, i32 noundef 646)
  %33 = load i32, ptr %1, align 4, !tbaa !4
  call void @llvm.lifetime.end.p0(i64 25, ptr %7) #6
  call void @llvm.lifetime.end.p0(i64 8, ptr %6) #6
  call void @llvm.lifetime.end.p0(i64 4, ptr %5) #6
  call void @llvm.lifetime.end.p0(i64 4, ptr %4) #6
  call void @llvm.lifetime.end.p0(i64 25, ptr %3) #6
  call void @llvm.lifetime.end.p0(i64 8, ptr %2) #6
  call void @llvm.lifetime.end.p0(i64 4, ptr %1) #6
  ret i32 %33
}