; Function Attrs: nounwind uwtable
define internal range(i32 0, 2) i32 @test_kdf_pbkdf2() #0 {
  %1 = alloca [25 x i8], align 16
  %2 = alloca i32, align 4
  %3 = alloca i32, align 4
  %4 = alloca [25 x i8], align 16
  call void @llvm.lifetime.start.p0(i64 25, ptr nonnull %1) #6
  call void @llvm.lifetime.start.p0(i64 4, ptr nonnull %2) #6
  store i32 4096, ptr %2, align 4, !tbaa !4
  call void @llvm.lifetime.start.p0(i64 4, ptr nonnull %3) #6
  store i32 0, ptr %3, align 4, !tbaa !4
  call void @llvm.lifetime.start.p0(i64 25, ptr nonnull %4) #6
  call void @llvm.memcpy.p0.p0.i64(ptr noundef nonnull align 16 dereferenceable(25) %4, ptr noundef nonnull align 16 dereferenceable(25) @__const.test_kdf_pbkdf2.expected, i64 25, i1 false)
  %5 = call fastcc ptr @construct_pbkdf2_params(ptr noundef nonnull @.str.60, ptr noundef nonnull @.str.61, ptr noundef %2, ptr noundef %3)
  %6 = call i32 @test_ptr(ptr noundef nonnull @.str.53, i32 noundef 637, ptr noundef nonnull @.str.62, ptr noundef %5) #6
  %.not = icmp eq i32 %6, 0
  br i1 %.not, label %16, label %7

7:                                                ; preds = %0
  %8 = call ptr @EVP_KDF_fetch(ptr noundef null, ptr noundef nonnull @.str.107, ptr noundef null) #6
  %9 = call ptr @EVP_KDF_CTX_new(ptr noundef %8) #6
  call void @EVP_KDF_free(ptr noundef %8) #6
  %10 = call i32 @test_ptr(ptr noundef nonnull @.str.53, i32 noundef 638, ptr noundef nonnull @.str.137, ptr noundef %9) #6
  %.not6 = icmp eq i32 %10, 0
  br i1 %.not6, label %16, label %11

11:                                               ; preds = %7
  %12 = call i32 @EVP_KDF_derive(ptr noundef %9, ptr noundef nonnull %1, i64 noundef 25, ptr noundef %5) #6
  %13 = call i32 @test_int_gt(ptr noundef nonnull @.str.53, i32 noundef 639, ptr noundef nonnull @.str.120, ptr noundef nonnull @.str.67, i32 noundef %12, i32 noundef 0) #6
  %.not7 = icmp eq i32 %13, 0
  br i1 %.not7, label %16, label %14

14:                                               ; preds = %11
  %15 = call i32 @test_mem_eq(ptr noundef nonnull @.str.53, i32 noundef 640, ptr noundef nonnull @.str.68, ptr noundef nonnull @.str.69, ptr noundef nonnull %1, i64 noundef 25, ptr noundef nonnull %4, i64 noundef 25) #6
  %.not8 = icmp ne i32 %15, 0
  %spec.select = zext i1 %.not8 to i32
  br label %16

16:                                               ; preds = %14, %0, %7, %11
  %.05 = phi ptr [ %9, %11 ], [ %9, %7 ], [ null, %0 ], [ %9, %14 ]
  %.0 = phi i32 [ 0, %11 ], [ 0, %7 ], [ 0, %0 ], [ %spec.select, %14 ]
  call void @EVP_KDF_CTX_free(ptr noundef %.05) #6
  call void @CRYPTO_free(ptr noundef %5, ptr noundef nonnull @.str.53, i32 noundef 646) #6
  call void @llvm.lifetime.end.p0(i64 25, ptr nonnull %4) #6
  call void @llvm.lifetime.end.p0(i64 4, ptr nonnull %3) #6
  call void @llvm.lifetime.end.p0(i64 4, ptr nonnull %2) #6
  call void @llvm.lifetime.end.p0(i64 25, ptr nonnull %1) #6
  ret i32 %.0
}